#include <math.h>
#include <stdio.h>
#include <stdlib.h>
#include <string.h>

main()
{
      int n,i=1;
      double a,b,c,x1,x2,d,f,k;
      scanf("%d",&n);
      while(i<=n)
      {
                 scanf("%lf %lf %lf",&a,&b,&c);
                 f=-b/(2*a);
                 if(b==0)f=0;
                 d=b*b-4*a*c;
                 if(d>0)
                 {
                        x1=f+sqrt(d)/(2*a);
                        x2=f-sqrt(d)/(2*a);
                        printf("x1=%.5f;x2=%.5f\n",x1,x2);
                 }
                 else if(d==0) printf("x1=x2=%.5f\n",f);
                 else
                 {
                        k=sqrt(-d)/(2*a);
                        printf("x1=%.5f+%.5fi;x2=%.5f-%.5fi\n",f,k,f,k);
                 }
                 i++;
      }               
}